#include <math.h>
#include <stdio.h>
#include <stdlib.h>
#include <string.h>

int main()
{
    char q[1000],t[1000][10];
    int n,i,j,l,s[1000],f[1000],m,F;
    scanf("%d",&n);
    gets(q);
    gets(q);
    l=strlen(q);
    for(i=0;i<=l-n;i++)
    {
        for(j=0;j<n;j++)
        t[i][j]=q[i+j];
    }
    for(i=0;i<=l-n-1;i++)
    {
        if(t[i][0]!='\0')
        {
        s[i]=1;
        for(j=i+1;j<=l-n;j++)
        {
        if(strcmp(t[i],t[j])==0&&t[j][0]!='\0')
        {
        s[i]++;
        t[j][0]='\0';
        }
        }
        }
        else
        s[i]=0;
    }
    if(t[l-n][0]!='\0')
    s[l-n]=1;
    else
    {
    s[l-n]=0;
    }
    m=s[0];
    F=0;
    f[0]=0;
    for(i=1;i<=l-n-1;i++)
    {
        if(m<s[i])
        {
        F=0;
        m=s[i];
        f[F]=i;
        }
        else if(m==s[i])
        {
            F++;
            f[F]=i;
        }
    }
    if(s[f[F]]<=1)
    {
    printf("NO");
    }
    else
    {
    printf("%d\n",m);
    for(i=0;i<=F;i++)
    {
    printf("%s\n",t[f[i]]);
    }
    }
    return 0;
}
