target datalayout = "e-m:e-p270:32:32-p271:32:32-p272:64:64-i64:64-f80:128-n8:16:32:64-S128"
target triple = "x86_64-pc-linux-gnu"

@.str = private unnamed_addr constant [3 x i8] c"%d\00", align 1
@.str.1 = private unnamed_addr constant [3 x i8] c"NO\00", align 1
@.str.2 = private unnamed_addr constant [4 x i8] c"%d\0A\00", align 1
@.str.3 = private unnamed_addr constant [4 x i8] c"%s\0A\00", align 1

; Function Attrs: noinline nounwind uwtable
define dso_local i32 @main() #0 {
  %1 = alloca i32, align 4
  %2 = alloca [1000 x i8], align 16
  %3 = alloca [1000 x [10 x i8]], align 16
  %4 = alloca i32, align 4
  %5 = alloca i32, align 4
  %6 = alloca i32, align 4
  %7 = alloca i32, align 4
  %8 = alloca [1000 x i32], align 16
  %9 = alloca [1000 x i32], align 16
  %10 = alloca i32, align 4
  %11 = alloca i32, align 4
  store i32 0, i32* %1, align 4
  %12 = call i32 (i8*, ...) @__isoc99_scanf(i8* getelementptr inbounds ([3 x i8], [3 x i8]* @.str, i64 0, i64 0), i32* %4)
  %13 = getelementptr inbounds [1000 x i8], [1000 x i8]* %2, i64 0, i64 0
  %14 = call i32 (i8*, ...) bitcast (i32 (...)* @gets to i32 (i8*, ...)*)(i8* %13)
  %15 = getelementptr inbounds [1000 x i8], [1000 x i8]* %2, i64 0, i64 0
  %16 = call i32 (i8*, ...) bitcast (i32 (...)* @gets to i32 (i8*, ...)*)(i8* %15)
  %17 = getelementptr inbounds [1000 x i8], [1000 x i8]* %2, i64 0, i64 0
  %18 = call i64 @strlen(i8* %17) #3
  %19 = trunc i64 %18 to i32
  store i32 %19, i32* %7, align 4
  store i32 0, i32* %5, align 4
  br label %20

20:                                               ; preds = %48, %0
  %21 = load i32, i32* %5, align 4
  %22 = load i32, i32* %7, align 4
  %23 = load i32, i32* %4, align 4
  %24 = sub nsw i32 %22, %23
  %25 = icmp sle i32 %21, %24
  br i1 %25, label %26, label %51

26:                                               ; preds = %20
  store i32 0, i32* %6, align 4
  br label %27

27:                                               ; preds = %44, %26
  %28 = load i32, i32* %6, align 4
  %29 = load i32, i32* %4, align 4
  %30 = icmp slt i32 %28, %29
  br i1 %30, label %31, label %47

31:                                               ; preds = %27
  %32 = load i32, i32* %5, align 4
  %33 = load i32, i32* %6, align 4
  %34 = add nsw i32 %32, %33
  %35 = sext i32 %34 to i64
  %36 = getelementptr inbounds [1000 x i8], [1000 x i8]* %2, i64 0, i64 %35
  %37 = load i8, i8* %36, align 1
  %38 = load i32, i32* %5, align 4
  %39 = sext i32 %38 to i64
  %40 = getelementptr inbounds [1000 x [10 x i8]], [1000 x [10 x i8]]* %3, i64 0, i64 %39
  %41 = load i32, i32* %6, align 4
  %42 = sext i32 %41 to i64
  %43 = getelementptr inbounds [10 x i8], [10 x i8]* %40, i64 0, i64 %42
  store i8 %37, i8* %43, align 1
  br label %44

44:                                               ; preds = %31
  %45 = load i32, i32* %6, align 4
  %46 = add nsw i32 %45, 1
  store i32 %46, i32* %6, align 4
  br label %27

47:                                               ; preds = %27
  br label %48

48:                                               ; preds = %47
  %49 = load i32, i32* %5, align 4
  %50 = add nsw i32 %49, 1
  store i32 %50, i32* %5, align 4
  br label %20

51:                                               ; preds = %20
  store i32 0, i32* %5, align 4
  br label %52

52:                                               ; preds = %118, %51
  %53 = load i32, i32* %5, align 4
  %54 = load i32, i32* %7, align 4
  %55 = load i32, i32* %4, align 4
  %56 = sub nsw i32 %54, %55
  %57 = sub nsw i32 %56, 1
  %58 = icmp sle i32 %53, %57
  br i1 %58, label %59, label %121

59:                                               ; preds = %52
  %60 = load i32, i32* %5, align 4
  %61 = sext i32 %60 to i64
  %62 = getelementptr inbounds [1000 x [10 x i8]], [1000 x [10 x i8]]* %3, i64 0, i64 %61
  %63 = getelementptr inbounds [10 x i8], [10 x i8]* %62, i64 0, i64 0
  %64 = load i8, i8* %63, align 2
  %65 = sext i8 %64 to i32
  %66 = icmp ne i32 %65, 0
  br i1 %66, label %67, label %113

67:                                               ; preds = %59
  %68 = load i32, i32* %5, align 4
  %69 = sext i32 %68 to i64
  %70 = getelementptr inbounds [1000 x i32], [1000 x i32]* %8, i64 0, i64 %69
  store i32 1, i32* %70, align 4
  %71 = load i32, i32* %5, align 4
  %72 = add nsw i32 %71, 1
  store i32 %72, i32* %6, align 4
  br label %73

73:                                               ; preds = %109, %67
  %74 = load i32, i32* %6, align 4
  %75 = load i32, i32* %7, align 4
  %76 = load i32, i32* %4, align 4
  %77 = sub nsw i32 %75, %76
  %78 = icmp sle i32 %74, %77
  br i1 %78, label %79, label %112

79:                                               ; preds = %73
  %80 = load i32, i32* %5, align 4
  %81 = sext i32 %80 to i64
  %82 = getelementptr inbounds [1000 x [10 x i8]], [1000 x [10 x i8]]* %3, i64 0, i64 %81
  %83 = getelementptr inbounds [10 x i8], [10 x i8]* %82, i64 0, i64 0
  %84 = load i32, i32* %6, align 4
  %85 = sext i32 %84 to i64
  %86 = getelementptr inbounds [1000 x [10 x i8]], [1000 x [10 x i8]]* %3, i64 0, i64 %85
  %87 = getelementptr inbounds [10 x i8], [10 x i8]* %86, i64 0, i64 0
  %88 = call i32 @strcmp(i8* %83, i8* %87) #3
  %89 = icmp eq i32 %88, 0
  br i1 %89, label %90, label %108

90:                                               ; preds = %79
  %91 = load i32, i32* %6, align 4
  %92 = sext i32 %91 to i64
  %93 = getelementptr inbounds [1000 x [10 x i8]], [1000 x [10 x i8]]* %3, i64 0, i64 %92
  %94 = getelementptr inbounds [10 x i8], [10 x i8]* %93, i64 0, i64 0
  %95 = load i8, i8* %94, align 2
  %96 = sext i8 %95 to i32
  %97 = icmp ne i32 %96, 0
  br i1 %97, label %98, label %108

98:                                               ; preds = %90
  %99 = load i32, i32* %5, align 4
  %100 = sext i32 %99 to i64
  %101 = getelementptr inbounds [1000 x i32], [1000 x i32]* %8, i64 0, i64 %100
  %102 = load i32, i32* %101, align 4
  %103 = add nsw i32 %102, 1
  store i32 %103, i32* %101, align 4
  %104 = load i32, i32* %6, align 4
  %105 = sext i32 %104 to i64
  %106 = getelementptr inbounds [1000 x [10 x i8]], [1000 x [10 x i8]]* %3, i64 0, i64 %105
  %107 = getelementptr inbounds [10 x i8], [10 x i8]* %106, i64 0, i64 0
  store i8 0, i8* %107, align 2
  br label %108

108:                                              ; preds = %98, %90, %79
  br label %109

109:                                              ; preds = %108
  %110 = load i32, i32* %6, align 4
  %111 = add nsw i32 %110, 1
  store i32 %111, i32* %6, align 4
  br label %73

112:                                              ; preds = %73
  br label %117

113:                                              ; preds = %59
  %114 = load i32, i32* %5, align 4
  %115 = sext i32 %114 to i64
  %116 = getelementptr inbounds [1000 x i32], [1000 x i32]* %8, i64 0, i64 %115
  store i32 0, i32* %116, align 4
  br label %117

117:                                              ; preds = %113, %112
  br label %118

118:                                              ; preds = %117
  %119 = load i32, i32* %5, align 4
  %120 = add nsw i32 %119, 1
  store i32 %120, i32* %5, align 4
  br label %52

121:                                              ; preds = %52
  %122 = load i32, i32* %7, align 4
  %123 = load i32, i32* %4, align 4
  %124 = sub nsw i32 %122, %123
  %125 = sext i32 %124 to i64
  %126 = getelementptr inbounds [1000 x [10 x i8]], [1000 x [10 x i8]]* %3, i64 0, i64 %125
  %127 = getelementptr inbounds [10 x i8], [10 x i8]* %126, i64 0, i64 0
  %128 = load i8, i8* %127, align 2
  %129 = sext i8 %128 to i32
  %130 = icmp ne i32 %129, 0
  br i1 %130, label %131, label %137

131:                                              ; preds = %121
  %132 = load i32, i32* %7, align 4
  %133 = load i32, i32* %4, align 4
  %134 = sub nsw i32 %132, %133
  %135 = sext i32 %134 to i64
  %136 = getelementptr inbounds [1000 x i32], [1000 x i32]* %8, i64 0, i64 %135
  store i32 1, i32* %136, align 4
  br label %143

137:                                              ; preds = %121
  %138 = load i32, i32* %7, align 4
  %139 = load i32, i32* %4, align 4
  %140 = sub nsw i32 %138, %139
  %141 = sext i32 %140 to i64
  %142 = getelementptr inbounds [1000 x i32], [1000 x i32]* %8, i64 0, i64 %141
  store i32 0, i32* %142, align 4
  br label %143

143:                                              ; preds = %137, %131
  %144 = getelementptr inbounds [1000 x i32], [1000 x i32]* %8, i64 0, i64 0
  %145 = load i32, i32* %144, align 16
  store i32 %145, i32* %10, align 4
  store i32 0, i32* %11, align 4
  %146 = getelementptr inbounds [1000 x i32], [1000 x i32]* %9, i64 0, i64 0
  store i32 0, i32* %146, align 16
  store i32 1, i32* %5, align 4
  br label %147

147:                                              ; preds = %186, %143
  %148 = load i32, i32* %5, align 4
  %149 = load i32, i32* %7, align 4
  %150 = load i32, i32* %4, align 4
  %151 = sub nsw i32 %149, %150
  %152 = sub nsw i32 %151, 1
  %153 = icmp sle i32 %148, %152
  br i1 %153, label %154, label %189

154:                                              ; preds = %147
  %155 = load i32, i32* %10, align 4
  %156 = load i32, i32* %5, align 4
  %157 = sext i32 %156 to i64
  %158 = getelementptr inbounds [1000 x i32], [1000 x i32]* %8, i64 0, i64 %157
  %159 = load i32, i32* %158, align 4
  %160 = icmp slt i32 %155, %159
  br i1 %160, label %161, label %170

161:                                              ; preds = %154
  store i32 0, i32* %11, align 4
  %162 = load i32, i32* %5, align 4
  %163 = sext i32 %162 to i64
  %164 = getelementptr inbounds [1000 x i32], [1000 x i32]* %8, i64 0, i64 %163
  %165 = load i32, i32* %164, align 4
  store i32 %165, i32* %10, align 4
  %166 = load i32, i32* %5, align 4
  %167 = load i32, i32* %11, align 4
  %168 = sext i32 %167 to i64
  %169 = getelementptr inbounds [1000 x i32], [1000 x i32]* %9, i64 0, i64 %168
  store i32 %166, i32* %169, align 4
  br label %185

170:                                              ; preds = %154
  %171 = load i32, i32* %10, align 4
  %172 = load i32, i32* %5, align 4
  %173 = sext i32 %172 to i64
  %174 = getelementptr inbounds [1000 x i32], [1000 x i32]* %8, i64 0, i64 %173
  %175 = load i32, i32* %174, align 4
  %176 = icmp eq i32 %171, %175
  br i1 %176, label %177, label %184

177:                                              ; preds = %170
  %178 = load i32, i32* %11, align 4
  %179 = add nsw i32 %178, 1
  store i32 %179, i32* %11, align 4
  %180 = load i32, i32* %5, align 4
  %181 = load i32, i32* %11, align 4
  %182 = sext i32 %181 to i64
  %183 = getelementptr inbounds [1000 x i32], [1000 x i32]* %9, i64 0, i64 %182
  store i32 %180, i32* %183, align 4
  br label %184

184:                                              ; preds = %177, %170
  br label %185

185:                                              ; preds = %184, %161
  br label %186

186:                                              ; preds = %185
  %187 = load i32, i32* %5, align 4
  %188 = add nsw i32 %187, 1
  store i32 %188, i32* %5, align 4
  br label %147

189:                                              ; preds = %147
  %190 = load i32, i32* %11, align 4
  %191 = sext i32 %190 to i64
  %192 = getelementptr inbounds [1000 x i32], [1000 x i32]* %9, i64 0, i64 %191
  %193 = load i32, i32* %192, align 4
  %194 = sext i32 %193 to i64
  %195 = getelementptr inbounds [1000 x i32], [1000 x i32]* %8, i64 0, i64 %194
  %196 = load i32, i32* %195, align 4
  %197 = icmp sle i32 %196, 1
  br i1 %197, label %198, label %200

198:                                              ; preds = %189
  %199 = call i32 (i8*, ...) @printf(i8* getelementptr inbounds ([3 x i8], [3 x i8]* @.str.1, i64 0, i64 0))
  br label %220

200:                                              ; preds = %189
  %201 = load i32, i32* %10, align 4
  %202 = call i32 (i8*, ...) @printf(i8* getelementptr inbounds ([4 x i8], [4 x i8]* @.str.2, i64 0, i64 0), i32 %201)
  store i32 0, i32* %5, align 4
  br label %203

203:                                              ; preds = %216, %200
  %204 = load i32, i32* %5, align 4
  %205 = load i32, i32* %11, align 4
  %206 = icmp sle i32 %204, %205
  br i1 %206, label %207, label %219

207:                                              ; preds = %203
  %208 = load i32, i32* %5, align 4
  %209 = sext i32 %208 to i64
  %210 = getelementptr inbounds [1000 x i32], [1000 x i32]* %9, i64 0, i64 %209
  %211 = load i32, i32* %210, align 4
  %212 = sext i32 %211 to i64
  %213 = getelementptr inbounds [1000 x [10 x i8]], [1000 x [10 x i8]]* %3, i64 0, i64 %212
  %214 = getelementptr inbounds [10 x i8], [10 x i8]* %213, i64 0, i64 0
  %215 = call i32 (i8*, ...) @printf(i8* getelementptr inbounds ([4 x i8], [4 x i8]* @.str.3, i64 0, i64 0), i8* %214)
  br label %216

216:                                              ; preds = %207
  %217 = load i32, i32* %5, align 4
  %218 = add nsw i32 %217, 1
  store i32 %218, i32* %5, align 4
  br label %203

219:                                              ; preds = %203
  br label %220

220:                                              ; preds = %219, %198
  ret i32 0
}